; Function Attrs: mustprogress uwtable
define void @_ZN9grpc_core10Subchannel18OnRetryTimerLockedEv(ptr noundef nonnull align 8 dereferenceable(928) %this) local_unnamed_addr #3 align 2 personality ptr @__gxx_personality_v0 {
entry:
  %ref.tmp = alloca %"class.std::__cxx11::basic_string", align 8
  %ref.tmp2 = alloca %"class.absl::lts_20230802::Status", align 8
  %shutdown_ = getelementptr inbounds i8, ptr %this, i64 408
  %0 = load i8, ptr %shutdown_, align 8
  %1 = and i8 %0, 1
  %tobool.not = icmp eq i8 %1, 0
  br i1 %tobool.not, label %if.end, label %return

if.end:                                           ; preds = %entry
  %key_ = getelementptr inbounds i8, ptr %this, i64 24
  call void @_ZNK9grpc_core13SubchannelKey8ToStringB5cxx11Ev(ptr nonnull sret(%"class.std::__cxx11::basic_string") align 8 %ref.tmp, ptr noundef nonnull align 8 dereferenceable(144) %key_)
  %call = call noundef ptr @_ZNKSt7__cxx1112basic_stringIcSt11char_traitsIcESaIcEE5c_strEv(ptr noundef nonnull align 8 dereferenceable(32) %ref.tmp) #26
  invoke void (ptr, i32, i32, ptr, ...) @gpr_log(ptr noundef nonnull @.str.3, i32 noundef 699, i32 noundef 1, ptr noundef nonnull @.str.23, ptr noundef nonnull %this, ptr noundef %call)
          to label %invoke.cont unwind label %lpad

invoke.cont:                                      ; preds = %if.end
  call void @_ZNSt7__cxx1112basic_stringIcSt11char_traitsIcESaIcEED1Ev(ptr noundef nonnull align 8 dereferenceable(32) %ref.tmp) #26
  store i64 0, ptr %ref.tmp2, align 8, !alias.scope !70
  invoke void @_ZN9grpc_core10Subchannel26SetConnectivityStateLockedE23grpc_connectivity_stateRKN4absl12lts_202308026StatusE(ptr noundef nonnull align 8 dereferenceable(928) %this, i32 noundef 0, ptr noundef nonnull align 8 dereferenceable(8) %ref.tmp2)
          to label %invoke.cont4 unwind label %lpad3

invoke.cont4:                                     ; preds = %invoke.cont
  %2 = load i64, ptr %ref.tmp2, align 8
  %and.i.i.i = and i64 %2, 1
  %cmp.i.i.i = icmp eq i64 %and.i.i.i, 0
  br i1 %cmp.i.i.i, label %return, label %if.then.i.i

if.then.i.i:                                      ; preds = %invoke.cont4
  invoke void @_ZN4absl12lts_202308026Status15UnrefNonInlinedEm(i64 noundef %2)
          to label %return unwind label %terminate.lpad.i

terminate.lpad.i:                                 ; preds = %if.then.i.i
  %3 = landingpad { ptr, i32 }
          catch ptr null
  %4 = extractvalue { ptr, i32 } %3, 0
  call void @__clang_call_terminate(ptr %4) #27
  unreachable

return:                                           ; preds = %if.then.i.i, %invoke.cont4, %entry
  ret void

lpad:                                             ; preds = %if.end
  %5 = landingpad { ptr, i32 }
          cleanup
  call void @_ZNSt7__cxx1112basic_stringIcSt11char_traitsIcESaIcEED1Ev(ptr noundef nonnull align 8 dereferenceable(32) %ref.tmp) #26
  br label %eh.resume

lpad3:                                            ; preds = %invoke.cont
  %6 = landingpad { ptr, i32 }
          cleanup
  call void @_ZN4absl12lts_202308026StatusD2Ev(ptr noundef nonnull align 8 dereferenceable(8) %ref.tmp2) #26
  br label %eh.resume

eh.resume:                                        ; preds = %lpad3, %lpad
  %.pn = phi { ptr, i32 } [ %6, %lpad3 ], [ %5, %lpad ]
  resume { ptr, i32 } %.pn
}